; Function Attrs: mustprogress uwtable
define noundef i32 @_ZN3zmq14plain_server_t16process_initiateEPNS_5msg_tE(ptr noundef nonnull align 8 dereferenceable(1576) %this, ptr noundef nonnull %msg_) local_unnamed_addr #0 align 2 {
entry:
  %call = tail call noundef ptr @_ZN3zmq5msg_t4dataEv(ptr noundef nonnull align 8 dereferenceable(64) %msg_)
  %call2 = tail call noundef i64 @_ZNK3zmq5msg_t4sizeEv(ptr noundef nonnull align 8 dereferenceable(64) %msg_)
  %cmp = icmp ult i64 %call2, 9
  br i1 %cmp, label %if.then, label %lor.lhs.false

lor.lhs.false:                                    ; preds = %entry
  %bcmp = tail call i32 @bcmp(ptr noundef nonnull dereferenceable(9) %call, ptr noundef nonnull dereferenceable(9) @_ZN3zmqL15initiate_prefixE, i64 9)
  %cmp4.not = icmp eq i32 %bcmp, 0
  br i1 %cmp4.not, label %if.end, label %if.then

if.then:                                          ; preds = %lor.lhs.false, %entry
  %session = getelementptr inbounds i8, ptr %this, i64 1568
  %0 = load ptr, ptr %session, align 8
  %call5 = tail call noundef ptr @_ZNK3zmq14session_base_t10get_socketEv(ptr noundef nonnull align 8 dereferenceable(1624) %0)
  %1 = load ptr, ptr %session, align 8
  %call8 = tail call noundef nonnull align 8 dereferenceable(68) ptr @_ZNK3zmq14session_base_t12get_endpointEv(ptr noundef nonnull align 8 dereferenceable(1624) %1)
  tail call void @_ZN3zmq13socket_base_t31event_handshake_failed_protocolERKNS_19endpoint_uri_pair_tEi(ptr noundef nonnull align 8 dereferenceable(1825) %call5, ptr noundef nonnull align 8 dereferenceable(68) %call8, i32 noundef 268435457)
  %call9 = tail call ptr @__errno_location() #15
  store i32 71, ptr %call9, align 4
  br label %return

if.end:                                           ; preds = %lor.lhs.false
  %add.ptr10 = getelementptr inbounds i8, ptr %this, i64 80
  %add.ptr11 = getelementptr inbounds i8, ptr %call, i64 9
  %sub = add i64 %call2, -9
  %call12 = tail call noundef i32 @_ZN3zmq11mechanism_t14parse_metadataEPKhmb(ptr noundef nonnull align 8 dereferenceable(1488) %add.ptr10, ptr noundef nonnull %add.ptr11, i64 noundef %sub, i1 noundef zeroext false)
  %cmp13 = icmp eq i32 %call12, 0
  br i1 %cmp13, label %if.then14, label %return

if.then14:                                        ; preds = %if.end
  %state = getelementptr inbounds i8, ptr %this, i64 72
  store i32 4, ptr %state, align 8
  br label %return

return:                                           ; preds = %if.end, %if.then14, %if.then
  %retval.0 = phi i32 [ -1, %if.then ], [ 0, %if.then14 ], [ %call12, %if.end ]
  ret i32 %retval.0
}